; Function Attrs: inlinehint mustprogress nounwind ssp uwtable
define internal fastcc void @_ZNSt5arrayISt10shared_ptrIN6open3d8geometry12_GLOBAL__N_123BoundaryVolumeHierarchyEELm8EED2Ev(ptr noundef nonnull readonly align 8 captures(address) dereferenceable(128) %0) unnamed_addr #18 align 2 personality ptr @__gxx_personality_v0 {
  %2 = getelementptr inbounds nuw i8, ptr %0, i64 128
  br label %3

3:                                                ; preds = %_ZNSt12__shared_ptrIN6open3d8geometry12_GLOBAL__N_123BoundaryVolumeHierarchyELN9__gnu_cxx12_Lock_policyE2EED2Ev.exit, %1
  %4 = phi ptr [ %2, %1 ], [ %5, %_ZNSt12__shared_ptrIN6open3d8geometry12_GLOBAL__N_123BoundaryVolumeHierarchyELN9__gnu_cxx12_Lock_policyE2EED2Ev.exit ]
  %5 = getelementptr inbounds i8, ptr %4, i64 -16
  %6 = getelementptr i8, ptr %4, i64 -8
  %.val = load ptr, ptr %6, align 8, !tbaa !53
  %.not.i.i = icmp eq ptr %.val, null
  br i1 %.not.i.i, label %_ZNSt12__shared_ptrIN6open3d8geometry12_GLOBAL__N_123BoundaryVolumeHierarchyELN9__gnu_cxx12_Lock_policyE2EED2Ev.exit, label %7

7:                                                ; preds = %3
  %8 = getelementptr inbounds nuw i8, ptr %.val, i64 8
  %9 = load atomic i64, ptr %8 acquire, align 8
  %10 = icmp eq i64 %9, 4294967297
  %11 = trunc i64 %9 to i32
  br i1 %10, label %12, label %20

12:                                               ; preds = %7
  store i32 0, ptr %8, align 8, !tbaa !24
  %13 = getelementptr inbounds nuw i8, ptr %.val, i64 12
  store i32 0, ptr %13, align 4, !tbaa !27
  %14 = load ptr, ptr %.val, align 8, !tbaa !11
  %15 = getelementptr inbounds nuw i8, ptr %14, i64 16
  %16 = load ptr, ptr %15, align 8
  tail call void %16(ptr noundef nonnull align 8 dereferenceable(16) %.val) #5
  %17 = load ptr, ptr %.val, align 8, !tbaa !11
  %18 = getelementptr inbounds nuw i8, ptr %17, i64 24
  %19 = load ptr, ptr %18, align 8
  tail call void %19(ptr noundef nonnull align 8 dereferenceable(16) %.val) #5
  br label %_ZNSt12__shared_ptrIN6open3d8geometry12_GLOBAL__N_123BoundaryVolumeHierarchyELN9__gnu_cxx12_Lock_policyE2EED2Ev.exit

20:                                               ; preds = %7
  %21 = load i8, ptr @__libc_single_threaded, align 1, !tbaa !13
  %.not.i.i.i = icmp eq i8 %21, 0
  br i1 %.not.i.i.i, label %24, label %22

22:                                               ; preds = %20
  %23 = add nsw i32 %11, -1
  store i32 %23, ptr %8, align 4, !tbaa !64
  br label %_ZN9__gnu_cxx27__exchange_and_add_dispatchEPii.exit.i.i.i

24:                                               ; preds = %20
  %25 = atomicrmw volatile add ptr %8, i32 -1 acq_rel, align 4
  br label %_ZN9__gnu_cxx27__exchange_and_add_dispatchEPii.exit.i.i.i

_ZN9__gnu_cxx27__exchange_and_add_dispatchEPii.exit.i.i.i: ; preds = %24, %22
  %.0.i.i.i.i = phi i32 [ %11, %22 ], [ %25, %24 ]
  %26 = icmp eq i32 %.0.i.i.i.i, 1
  br i1 %26, label %27, label %_ZNSt12__shared_ptrIN6open3d8geometry12_GLOBAL__N_123BoundaryVolumeHierarchyELN9__gnu_cxx12_Lock_policyE2EED2Ev.exit, !prof !87

27:                                               ; preds = %_ZN9__gnu_cxx27__exchange_and_add_dispatchEPii.exit.i.i.i
  tail call void @_ZNSt16_Sp_counted_baseILN9__gnu_cxx12_Lock_policyE2EE24_M_release_last_use_coldEv(ptr noundef nonnull align 8 dereferenceable(16) %.val) #5
  br label %_ZNSt12__shared_ptrIN6open3d8geometry12_GLOBAL__N_123BoundaryVolumeHierarchyELN9__gnu_cxx12_Lock_policyE2EED2Ev.exit

_ZNSt12__shared_ptrIN6open3d8geometry12_GLOBAL__N_123BoundaryVolumeHierarchyELN9__gnu_cxx12_Lock_policyE2EED2Ev.exit: ; preds = %3, %12, %_ZN9__gnu_cxx27__exchange_and_add_dispatchEPii.exit.i.i.i, %27
  %28 = icmp eq ptr %5, %0
  br i1 %28, label %29, label %3

29:                                               ; preds = %_ZNSt12__shared_ptrIN6open3d8geometry12_GLOBAL__N_123BoundaryVolumeHierarchyELN9__gnu_cxx12_Lock_policyE2EED2Ev.exit
  ret void
}